target datalayout = "e-m:e-p270:32:32-p271:32:32-p272:64:64-i64:64-i128:128-f80:128-n8:16:32:64-S128"
target triple = "x86_64-pc-linux-gnu"

%struct.nstime_t = type { i64, i32 }
%struct._packet_info = type { ptr, ptr, i32, i32, %struct.nstime_t, %struct.nstime_t, %struct.nstime_t, i8, ptr, ptr, ptr, ptr, %struct._address, %struct._address, %struct._address, %struct._address, %struct._address, %struct._address, i32, ptr, i8, [3 x i8], %struct.anon, i32, i32, i32, i32, ptr, i8, ptr, ptr, i16, i16, i32, i32, i16, i32, i32, ptr, ptr, ptr, i8, i8, i16, i16, i16, i32, i16, i16, ptr, ptr, ptr, ptr, ptr, i32, i32 }
%struct._address = type { i32, i32, ptr, ptr }
%struct.anon = type { i8, [3 x i8] }

@hf_afp_pad = internal global i32 0, align 4
@hf_afp_Version = internal global i32 0, align 4
@hf_afp_UAM = internal global i32 0, align 4
@hf_afp_user_type = internal global i32 0, align 4
@hf_afp_user_len = internal global i32 0, align 4
@hf_afp_user_name = internal global i32 0, align 4
@hf_afp_login_flags = internal global i32 0, align 4
@hf_afp_path_type = internal global i32 0, align 4
@hf_afp_path_len = internal global i32 0, align 4
@hf_afp_path_unicode_len = internal global i32 0, align 4
@hf_afp_path_name = internal global i32 0, align 4

; Function Attrs: null_pointer_is_valid sspstrong uwtable
define internal i32 @dissect_query_afp_login_ext(ptr noundef %0, ptr noundef %1, ptr noundef %2, i32 noundef %3) #1 {
  %5 = alloca ptr, align 8
  %6 = alloca ptr, align 8
  %7 = alloca ptr, align 8
  %8 = alloca i32, align 4
  %9 = alloca i32, align 4
  %10 = alloca i32, align 4
  %11 = alloca ptr, align 8
  %12 = alloca i8, align 1
  store ptr %0, ptr %5, align 8
  store ptr %1, ptr %6, align 8
  store ptr %2, ptr %7, align 8
  store i32 %3, ptr %8, align 4
  call void @llvm.lifetime.start.p0(i64 4, ptr %9) #8
  call void @llvm.lifetime.start.p0(i64 4, ptr %10) #8
  call void @llvm.lifetime.start.p0(i64 8, ptr %11) #8
  call void @llvm.lifetime.start.p0(i64 1, ptr %12) #8
  %13 = load ptr, ptr %7, align 8
  %14 = load i32, ptr @hf_afp_pad, align 4
  %15 = load ptr, ptr %5, align 8
  %16 = load i32, ptr %8, align 4
  %17 = call ptr @proto_tree_add_item(ptr noundef %13, i32 noundef %14, ptr noundef %15, i32 noundef %16, i32 noundef 1, i32 noundef 0)
  %18 = load i32, ptr %8, align 4
  %19 = add i32 %18, 1
  store i32 %19, ptr %8, align 4
  %20 = load ptr, ptr %7, align 8
  %21 = load i32, ptr @hf_afp_login_flags, align 4
  %22 = load ptr, ptr %5, align 8
  %23 = load i32, ptr %8, align 4
  %24 = call ptr @proto_tree_add_item(ptr noundef %20, i32 noundef %21, ptr noundef %22, i32 noundef %23, i32 noundef 2, i32 noundef 0)
  %25 = load i32, ptr %8, align 4
  %26 = add i32 %25, 2
  store i32 %26, ptr %8, align 4
  %27 = load ptr, ptr %5, align 8
  %28 = load i32, ptr %8, align 4
  %29 = call zeroext i8 @tvb_get_uint8(ptr noundef %27, i32 noundef %28)
  %30 = zext i8 %29 to i32
  store i32 %30, ptr %9, align 4
  %31 = load ptr, ptr %7, align 8
  %32 = load i32, ptr @hf_afp_Version, align 4
  %33 = load ptr, ptr %5, align 8
  %34 = load i32, ptr %8, align 4
  %35 = call ptr @proto_tree_add_item(ptr noundef %31, i32 noundef %32, ptr noundef %33, i32 noundef %34, i32 noundef 1, i32 noundef 2)
  %36 = load i32, ptr %9, align 4
  %37 = add i32 %36, 1
  %38 = load i32, ptr %8, align 4
  %39 = add i32 %38, %37
  store i32 %39, ptr %8, align 4
  %40 = load ptr, ptr %5, align 8
  %41 = load i32, ptr %8, align 4
  %42 = call zeroext i8 @tvb_get_uint8(ptr noundef %40, i32 noundef %41)
  %43 = zext i8 %42 to i32
  store i32 %43, ptr %10, align 4
  %44 = load ptr, ptr %6, align 8
  %45 = getelementptr inbounds nuw %struct._packet_info, ptr %44, i32 0, i32 51
  %46 = load ptr, ptr %45, align 8
  %47 = load ptr, ptr %5, align 8
  %48 = load i32, ptr %8, align 4
  %49 = add i32 %48, 1
  %50 = load i32, ptr %10, align 4
  %51 = call ptr @tvb_get_string_enc(ptr noundef %46, ptr noundef %47, i32 noundef %49, i32 noundef %50, i32 noundef 2)
  store ptr %51, ptr %11, align 8
  %52 = load ptr, ptr %7, align 8
  %53 = load i32, ptr @hf_afp_UAM, align 4
  %54 = load ptr, ptr %5, align 8
  %55 = load i32, ptr %8, align 4
  %56 = call ptr @proto_tree_add_item(ptr noundef %52, i32 noundef %53, ptr noundef %54, i32 noundef %55, i32 noundef 1, i32 noundef 2)
  %57 = load i32, ptr %10, align 4
  %58 = add i32 %57, 1
  %59 = load i32, ptr %8, align 4
  %60 = add i32 %59, %58
  store i32 %60, ptr %8, align 4
  %61 = load ptr, ptr %7, align 8
  %62 = load i32, ptr @hf_afp_user_type, align 4
  %63 = load ptr, ptr %5, align 8
  %64 = load i32, ptr %8, align 4
  %65 = call ptr @proto_tree_add_item(ptr noundef %61, i32 noundef %62, ptr noundef %63, i32 noundef %64, i32 noundef 1, i32 noundef 0)
  %66 = load i32, ptr %8, align 4
  %67 = add i32 %66, 1
  store i32 %67, ptr %8, align 4
  %68 = load ptr, ptr %5, align 8
  %69 = load i32, ptr %8, align 4
  %70 = call zeroext i16 @tvb_get_ntohs(ptr noundef %68, i32 noundef %69)
  %71 = zext i16 %70 to i32
  store i32 %71, ptr %9, align 4
  %72 = load ptr, ptr %7, align 8
  %73 = load i32, ptr @hf_afp_user_len, align 4
  %74 = load ptr, ptr %5, align 8
  %75 = load i32, ptr %8, align 4
  %76 = call ptr @proto_tree_add_item(ptr noundef %72, i32 noundef %73, ptr noundef %74, i32 noundef %75, i32 noundef 2, i32 noundef 0)
  %77 = load i32, ptr %8, align 4
  %78 = add i32 %77, 2
  store i32 %78, ptr %8, align 4
  %79 = load ptr, ptr %7, align 8
  %80 = load i32, ptr @hf_afp_user_name, align 4
  %81 = load ptr, ptr %5, align 8
  %82 = load i32, ptr %8, align 4
  %83 = load i32, ptr %9, align 4
  %84 = call ptr @proto_tree_add_item(ptr noundef %79, i32 noundef %80, ptr noundef %81, i32 noundef %82, i32 noundef %83, i32 noundef 2)
  %85 = load i32, ptr %9, align 4
  %86 = load i32, ptr %8, align 4
  %87 = add i32 %86, %85
  store i32 %87, ptr %8, align 4
  %88 = load ptr, ptr %5, align 8
  %89 = load i32, ptr %8, align 4
  %90 = call zeroext i8 @tvb_get_uint8(ptr noundef %88, i32 noundef %89)
  store i8 %90, ptr %12, align 1
  %91 = load ptr, ptr %7, align 8
  %92 = load i32, ptr @hf_afp_path_type, align 4
  %93 = load ptr, ptr %5, align 8
  %94 = load i32, ptr %8, align 4
  %95 = call ptr @proto_tree_add_item(ptr noundef %91, i32 noundef %92, ptr noundef %93, i32 noundef %94, i32 noundef 1, i32 noundef 0)
  %96 = load i32, ptr %8, align 4
  %97 = add i32 %96, 1
  store i32 %97, ptr %8, align 4
  %98 = load i8, ptr %12, align 1
  %99 = zext i8 %98 to i32
  switch i32 %99, label %142 [
    i32 1, label %100
    i32 2, label %100
    i32 3, label %121
  ]

100:                                              ; preds = %4, %4
  %101 = load ptr, ptr %5, align 8
  %102 = load i32, ptr %8, align 4
  %103 = call zeroext i8 @tvb_get_uint8(ptr noundef %101, i32 noundef %102)
  %104 = zext i8 %103 to i32
  store i32 %104, ptr %9, align 4
  %105 = load ptr, ptr %7, align 8
  %106 = load i32, ptr @hf_afp_path_len, align 4
  %107 = load ptr, ptr %5, align 8
  %108 = load i32, ptr %8, align 4
  %109 = call ptr @proto_tree_add_item(ptr noundef %105, i32 noundef %106, ptr noundef %107, i32 noundef %108, i32 noundef 1, i32 noundef 0)
  %110 = load i32, ptr %8, align 4
  %111 = add i32 %110, 1
  store i32 %111, ptr %8, align 4
  %112 = load ptr, ptr %7, align 8
  %113 = load i32, ptr @hf_afp_path_name, align 4
  %114 = load ptr, ptr %5, align 8
  %115 = load i32, ptr %8, align 4
  %116 = load i32, ptr %9, align 4
  %117 = call ptr @proto_tree_add_item(ptr noundef %112, i32 noundef %113, ptr noundef %114, i32 noundef %115, i32 noundef %116, i32 noundef 2)
  %118 = load i32, ptr %9, align 4
  %119 = load i32, ptr %8, align 4
  %120 = add i32 %119, %118
  store i32 %120, ptr %8, align 4
  br label %143

121:                                              ; preds = %4
  %122 = load ptr, ptr %5, align 8
  %123 = load i32, ptr %8, align 4
  %124 = call zeroext i16 @tvb_get_ntohs(ptr noundef %122, i32 noundef %123)
  %125 = zext i16 %124 to i32
  store i32 %125, ptr %9, align 4
  %126 = load ptr, ptr %7, align 8
  %127 = load i32, ptr @hf_afp_path_unicode_len, align 4
  %128 = load ptr, ptr %5, align 8
  %129 = load i32, ptr %8, align 4
  %130 = call ptr @proto_tree_add_item(ptr noundef %126, i32 noundef %127, ptr noundef %128, i32 noundef %129, i32 noundef 2, i32 noundef 0)
  %131 = load i32, ptr %8, align 4
  %132 = add i32 %131, 2
  store i32 %132, ptr %8, align 4
  %133 = load ptr, ptr %7, align 8
  %134 = load i32, ptr @hf_afp_path_name, align 4
  %135 = load ptr, ptr %5, align 8
  %136 = load i32, ptr %8, align 4
  %137 = load i32, ptr %9, align 4
  %138 = call ptr @proto_tree_add_item(ptr noundef %133, i32 noundef %134, ptr noundef %135, i32 noundef %136, i32 noundef %137, i32 noundef 2)
  %139 = load i32, ptr %9, align 4
  %140 = load i32, ptr %8, align 4
  %141 = add i32 %140, %139
  store i32 %141, ptr %8, align 4
  br label %143

142:                                              ; preds = %4
  br label %143

143:                                              ; preds = %142, %121, %100
  %144 = load ptr, ptr %11, align 8
  %145 = load i32, ptr %10, align 4
  %146 = load ptr, ptr %5, align 8
  %147 = load ptr, ptr %7, align 8
  %148 = load i32, ptr %8, align 4
  %149 = call i32 @decode_uam_parameters(ptr noundef %144, i32 noundef %145, ptr noundef %146, ptr noundef %147, i32 noundef %148)
  call void @llvm.lifetime.end.p0(i64 1, ptr %12) #8
  call void @llvm.lifetime.end.p0(i64 8, ptr %11) #8
  call void @llvm.lifetime.end.p0(i64 4, ptr %10) #8
  call void @llvm.lifetime.end.p0(i64 4, ptr %9) #8
  ret i32 %149
}