; Function Attrs: null_pointer_is_valid sspstrong uwtable
define internal fastcc range(i32 4, 131610) i32 @dissect_query_afp_login_ext(ptr noundef %0, ptr noundef readonly captures(none) %1, ptr noundef %2) unnamed_addr #1 {
  %4 = load i32, ptr @hf_afp_pad, align 4
  %5 = tail call ptr @proto_tree_add_item(ptr noundef %2, i32 noundef %4, ptr noundef %0, i32 noundef 1, i32 noundef 1, i32 noundef 0)
  %6 = load i32, ptr @hf_afp_login_flags, align 4
  %7 = tail call ptr @proto_tree_add_item(ptr noundef %2, i32 noundef %6, ptr noundef %0, i32 noundef 2, i32 noundef 2, i32 noundef 0)
  %8 = tail call zeroext i8 @tvb_get_uint8(ptr noundef %0, i32 noundef 4)
  %9 = zext i8 %8 to i32
  %10 = load i32, ptr @hf_afp_Version, align 4
  %11 = tail call ptr @proto_tree_add_item(ptr noundef %2, i32 noundef %10, ptr noundef %0, i32 noundef 4, i32 noundef 1, i32 noundef 2)
  %12 = add nuw nsw i32 %9, 5
  %13 = tail call zeroext i8 @tvb_get_uint8(ptr noundef %0, i32 noundef %12)
  %14 = zext i8 %13 to i32
  %15 = getelementptr inbounds nuw i8, ptr %1, i64 408
  %16 = load ptr, ptr %15, align 8
  %17 = add nuw nsw i32 %9, 6
  %18 = tail call ptr @tvb_get_string_enc(ptr noundef %16, ptr noundef %0, i32 noundef %17, i32 noundef %14, i32 noundef 2)
  %19 = load i32, ptr @hf_afp_UAM, align 4
  %20 = tail call ptr @proto_tree_add_item(ptr noundef %2, i32 noundef %19, ptr noundef %0, i32 noundef %12, i32 noundef 1, i32 noundef 2)
  %21 = add nuw nsw i32 %17, %14
  %22 = load i32, ptr @hf_afp_user_type, align 4
  %23 = tail call ptr @proto_tree_add_item(ptr noundef %2, i32 noundef %22, ptr noundef %0, i32 noundef %21, i32 noundef 1, i32 noundef 0)
  %24 = add nuw nsw i32 %21, 1
  %25 = tail call zeroext i16 @tvb_get_ntohs(ptr noundef %0, i32 noundef %24)
  %26 = zext i16 %25 to i32
  %27 = load i32, ptr @hf_afp_user_len, align 4
  %28 = tail call ptr @proto_tree_add_item(ptr noundef %2, i32 noundef %27, ptr noundef %0, i32 noundef %24, i32 noundef 2, i32 noundef 0)
  %29 = add nuw nsw i32 %21, 3
  %30 = load i32, ptr @hf_afp_user_name, align 4
  %31 = tail call ptr @proto_tree_add_item(ptr noundef %2, i32 noundef %30, ptr noundef %0, i32 noundef %29, i32 noundef %26, i32 noundef 2)
  %32 = add nuw nsw i32 %29, %26
  %33 = tail call zeroext i8 @tvb_get_uint8(ptr noundef %0, i32 noundef %32)
  %34 = load i32, ptr @hf_afp_path_type, align 4
  %35 = tail call ptr @proto_tree_add_item(ptr noundef %2, i32 noundef %34, ptr noundef %0, i32 noundef %32, i32 noundef 1, i32 noundef 0)
  %36 = add nuw nsw i32 %32, 1
  switch i8 %33, label %49 [
    i8 1, label %37
    i8 2, label %37
    i8 3, label %40
  ]

37:                                               ; preds = %3, %3
  %38 = tail call zeroext i8 @tvb_get_uint8(ptr noundef %0, i32 noundef %36)
  %39 = zext i8 %38 to i32
  br label %.sink.split

40:                                               ; preds = %3
  %41 = tail call zeroext i16 @tvb_get_ntohs(ptr noundef %0, i32 noundef %36)
  %42 = zext i16 %41 to i32
  br label %.sink.split

.sink.split:                                      ; preds = %37, %40
  %hf_afp_path_unicode_len.sink = phi ptr [ @hf_afp_path_unicode_len, %40 ], [ @hf_afp_path_len, %37 ]
  %.sink82 = phi i32 [ 2, %40 ], [ 1, %37 ]
  %.sink81 = phi i32 [ 3, %40 ], [ 2, %37 ]
  %.sink80 = phi i32 [ %42, %40 ], [ %39, %37 ]
  %43 = load i32, ptr %hf_afp_path_unicode_len.sink, align 4
  %44 = tail call ptr @proto_tree_add_item(ptr noundef %2, i32 noundef %43, ptr noundef %0, i32 noundef %36, i32 noundef %.sink82, i32 noundef 0)
  %45 = add nuw nsw i32 %32, %.sink81
  %46 = load i32, ptr @hf_afp_path_name, align 4
  %47 = tail call ptr @proto_tree_add_item(ptr noundef %2, i32 noundef %46, ptr noundef %0, i32 noundef %45, i32 noundef %.sink80, i32 noundef 2)
  %48 = add nuw nsw i32 %45, %.sink80
  br label %49

49:                                               ; preds = %.sink.split, %3
  %.0 = phi i32 [ %36, %3 ], [ %48, %.sink.split ]
  %50 = tail call fastcc i32 @decode_uam_parameters(ptr noundef %18, i32 noundef %14, ptr noundef %0, ptr noundef %2, i32 noundef %.0)
  ret i32 %50
}